ccopy_reg
_reconstructor
p0
(crequests.cookies
RequestsCookieJar
p1
c__builtin__
object
p2
Ntp3
Rp4
(dp5
S'_now'
p6
I1475099908
sS'_policy'
p7
(icookielib
DefaultCookiePolicy
p8
(dp9
S'strict_rfc2965_unverifiable'
p10
I01
sS'strict_ns_domain'
p11
I0
sS'_allowed_domains'
p12
NsS'rfc2109_as_netscape'
p13
NsS'rfc2965'
p14
I00
sS'strict_domain'
p15
I00
sg6
I1475099908
sS'strict_ns_set_path'
p16
I00
sS'strict_ns_unverifiable'
p17
I00
sS'strict_ns_set_initial_dollar'
p18
I00
sS'hide_cookie2'
p19
I00
sS'_blocked_domains'
p20
(tsS'netscape'
p21
I01
sbsS'_cookies'
p22
(dp23
S'mergernetwork.com'
p24
(dp25
S'/'
p26
(dp27
S'AWSELB'
p28
(icookielib
Cookie
p29
(dp30
S'comment'
p31
NsS'domain'
p32
S'mergernetwork.com'
p33
sS'name'
p34
g28
sS'domain_initial_dot'
p35
I00
sS'expires'
p36
I1476833790
sS'value'
p37
S'7DBD3D4F166C57A9522D0CAF5BA0EB6FDF7A17BD3D7B6F3E88DAD2A7BC900E22B1684F2C00E0343A9ED594D962F306DEC239D0E17BD3AF8B74E1081A5D5734BFC6C037AFEDC05A0D5EDEADA83B870A0B8EDA49AF45'
p38
sS'domain_specified'
p39
I00
sS'_rest'
p40
(dp41
S'HTTPONLY'
p42
NssS'version'
p43
I0
sS'port_specified'
p44
I00
sS'rfc2109'
p45
I00
sS'discard'
p46
I00
sS'path_specified'
p47
I01
sS'path'
p48
g26
sS'port'
p49
NsS'comment_url'
p50
NsS'secure'
p51
I00
sbsS'cftoken'
p52
(icookielib
Cookie
p53
(dp54
g31
Nsg32
S'mergernetwork.com'
p55
sg34
g52
sg35
I00
sg36
I1476833790
sg37
S'0'
p56
sg39
I00
sg40
(dp57
S'HTTPOnly'
p58
Nssg43
I0
sg44
I00
sg45
I00
sg46
I00
sg47
I01
sg48
g26
sg49
Nsg50
Nsg51
I00
sbsS'cfid'
p59
(icookielib
Cookie
p60
(dp61
g31
Nsg32
g24
sg34
g59
sg35
I00
sg36
I1476833790
sg37
S'109e87cd-d33c-4c53-8874-cb2b12c65929'
p62
sg39
I00
sg40
(dp63
S'HTTPOnly'
p64
Nssg43
I0
sg44
I00
sg45
I00
sg46
I00
sg47
I01
sg48
g26
sg49
Nsg50
Nsg51
I00
sbsssS'.mergernetwork.com'
p65
(dp66
g26
(dp67
S'UUID'
p68
(icookielib
Cookie
p69
(dp70
g31
Nsg32
g65
sg34
g68
sg35
I00
sg36
I4511721600
sg37
S'41B3D20E-9B8A-4DE2-BD5E0AE98F7EF155'
p71
sg39
I01
sg40
(dp72
sg43
I0
sg44
I00
sg45
I00
sg46
I00
sg47
I01
sg48
g26
sg49
Nsg50
Nsg51
I00
sbssssb.